; ModuleID = '24/452.c'
source_filename = "24/452.c"
target datalayout = "e-m:e-p270:32:32-p271:32:32-p272:64:64-i64:64-f80:128-n8:16:32:64-S128"
target triple = "x86_64-pc-linux-gnu"

@.str = private unnamed_addr constant [3 x i8] c"%c\00", align 1
@.str.1 = private unnamed_addr constant [2 x i8] c"\0A\00", align 1

; Function Attrs: noinline nounwind uwtable
define dso_local i32 @main(i32 %0, i8** %1) #0 {
  %3 = alloca i32, align 4
  %4 = alloca i32, align 4
  %5 = alloca i8**, align 8
  %6 = alloca [1000 x i8], align 16
  %7 = alloca [50 x i32], align 16
  %8 = alloca i32, align 4
  %9 = alloca i32, align 4
  %10 = alloca i32, align 4
  %11 = alloca i32, align 4
  %12 = alloca i32, align 4
  %13 = alloca i32, align 4
  %14 = alloca i32, align 4
  %15 = alloca i32, align 4
  %16 = alloca i32, align 4
  store i32 0, i32* %3, align 4
  store i32 %0, i32* %4, align 4
  store i8** %1, i8*** %5, align 8
  %17 = bitcast [50 x i32]* %7 to i8*
  call void @llvm.memset.p0i8.i64(i8* align 16 %17, i8 0, i64 200, i1 false)
  %18 = getelementptr inbounds [1000 x i8], [1000 x i8]* %6, i64 0, i64 0
  %19 = call i32 (i8*, ...) bitcast (i32 (...)* @gets to i32 (i8*, ...)*)(i8* %18)
  %20 = getelementptr inbounds [1000 x i8], [1000 x i8]* %6, i64 0, i64 0
  %21 = call i64 @strlen(i8* %20) #4
  %22 = trunc i64 %21 to i32
  store i32 %22, i32* %8, align 4
  store i32 0, i32* %10, align 4
  store i32 0, i32* %9, align 4
  br label %23

23:                                               ; preds = %52, %2
  %24 = load i32, i32* %9, align 4
  %25 = load i32, i32* %8, align 4
  %26 = sub nsw i32 %25, 1
  %27 = icmp sle i32 %24, %26
  br i1 %27, label %28, label %55

28:                                               ; preds = %23
  %29 = load i32, i32* %9, align 4
  %30 = sext i32 %29 to i64
  %31 = getelementptr inbounds [1000 x i8], [1000 x i8]* %6, i64 0, i64 %30
  %32 = load i8, i8* %31, align 1
  %33 = sext i8 %32 to i32
  %34 = icmp eq i32 %33, 32
  br i1 %34, label %42, label %35

35:                                               ; preds = %28
  %36 = load i32, i32* %9, align 4
  %37 = sext i32 %36 to i64
  %38 = getelementptr inbounds [1000 x i8], [1000 x i8]* %6, i64 0, i64 %37
  %39 = load i8, i8* %38, align 1
  %40 = sext i8 %39 to i32
  %41 = icmp eq i32 %40, 10
  br i1 %41, label %42, label %45

42:                                               ; preds = %35, %28
  %43 = load i32, i32* %10, align 4
  %44 = add nsw i32 %43, 1
  store i32 %44, i32* %10, align 4
  br label %51

45:                                               ; preds = %35
  %46 = load i32, i32* %10, align 4
  %47 = sext i32 %46 to i64
  %48 = getelementptr inbounds [50 x i32], [50 x i32]* %7, i64 0, i64 %47
  %49 = load i32, i32* %48, align 4
  %50 = add nsw i32 %49, 1
  store i32 %50, i32* %48, align 4
  br label %51

51:                                               ; preds = %45, %42
  br label %52

52:                                               ; preds = %51
  %53 = load i32, i32* %9, align 4
  %54 = add nsw i32 %53, 1
  store i32 %54, i32* %9, align 4
  br label %23

55:                                               ; preds = %23
  store i32 0, i32* %11, align 4
  store i32 100, i32* %12, align 4
  store i32 0, i32* %9, align 4
  br label %56

56:                                               ; preds = %87, %55
  %57 = load i32, i32* %9, align 4
  %58 = load i32, i32* %10, align 4
  %59 = icmp sle i32 %57, %58
  br i1 %59, label %60, label %90

60:                                               ; preds = %56
  %61 = load i32, i32* %11, align 4
  %62 = load i32, i32* %9, align 4
  %63 = sext i32 %62 to i64
  %64 = getelementptr inbounds [50 x i32], [50 x i32]* %7, i64 0, i64 %63
  %65 = load i32, i32* %64, align 4
  %66 = icmp slt i32 %61, %65
  br i1 %66, label %67, label %73

67:                                               ; preds = %60
  %68 = load i32, i32* %9, align 4
  %69 = sext i32 %68 to i64
  %70 = getelementptr inbounds [50 x i32], [50 x i32]* %7, i64 0, i64 %69
  %71 = load i32, i32* %70, align 4
  store i32 %71, i32* %11, align 4
  %72 = load i32, i32* %9, align 4
  store i32 %72, i32* %13, align 4
  br label %73

73:                                               ; preds = %67, %60
  %74 = load i32, i32* %12, align 4
  %75 = load i32, i32* %9, align 4
  %76 = sext i32 %75 to i64
  %77 = getelementptr inbounds [50 x i32], [50 x i32]* %7, i64 0, i64 %76
  %78 = load i32, i32* %77, align 4
  %79 = icmp sgt i32 %74, %78
  br i1 %79, label %80, label %86

80:                                               ; preds = %73
  %81 = load i32, i32* %9, align 4
  %82 = sext i32 %81 to i64
  %83 = getelementptr inbounds [50 x i32], [50 x i32]* %7, i64 0, i64 %82
  %84 = load i32, i32* %83, align 4
  store i32 %84, i32* %12, align 4
  %85 = load i32, i32* %9, align 4
  store i32 %85, i32* %14, align 4
  br label %86

86:                                               ; preds = %80, %73
  br label %87

87:                                               ; preds = %86
  %88 = load i32, i32* %9, align 4
  %89 = add nsw i32 %88, 1
  store i32 %89, i32* %9, align 4
  br label %56

90:                                               ; preds = %56
  %91 = load i32, i32* %13, align 4
  %92 = icmp eq i32 %91, 0
  br i1 %92, label %93, label %113

93:                                               ; preds = %90
  store i32 0, i32* %9, align 4
  br label %94

94:                                               ; preds = %108, %93
  %95 = load i32, i32* %9, align 4
  %96 = sext i32 %95 to i64
  %97 = getelementptr inbounds [1000 x i8], [1000 x i8]* %6, i64 0, i64 %96
  %98 = load i8, i8* %97, align 1
  %99 = sext i8 %98 to i32
  %100 = icmp ne i32 %99, 32
  br i1 %100, label %101, label %111

101:                                              ; preds = %94
  %102 = load i32, i32* %9, align 4
  %103 = sext i32 %102 to i64
  %104 = getelementptr inbounds [1000 x i8], [1000 x i8]* %6, i64 0, i64 %103
  %105 = load i8, i8* %104, align 1
  %106 = sext i8 %105 to i32
  %107 = call i32 (i8*, ...) @printf(i8* getelementptr inbounds ([3 x i8], [3 x i8]* @.str, i64 0, i64 0), i32 %106)
  br label %108

108:                                              ; preds = %101
  %109 = load i32, i32* %9, align 4
  %110 = add nsw i32 %109, 1
  store i32 %110, i32* %9, align 4
  br label %94

111:                                              ; preds = %94
  %112 = call i32 (i8*, ...) @printf(i8* getelementptr inbounds ([2 x i8], [2 x i8]* @.str.1, i64 0, i64 0))
  br label %147

113:                                              ; preds = %90
  store i32 0, i32* %15, align 4
  store i32 0, i32* %9, align 4
  br label %114

114:                                              ; preds = %142, %113
  %115 = load i32, i32* %9, align 4
  %116 = load i32, i32* %8, align 4
  %117 = sub nsw i32 %116, 1
  %118 = icmp sle i32 %115, %117
  br i1 %118, label %119, label %145

119:                                              ; preds = %114
  %120 = load i32, i32* %9, align 4
  %121 = sext i32 %120 to i64
  %122 = getelementptr inbounds [1000 x i8], [1000 x i8]* %6, i64 0, i64 %121
  %123 = load i8, i8* %122, align 1
  %124 = sext i8 %123 to i32
  %125 = icmp eq i32 %124, 32
  br i1 %125, label %126, label %129

126:                                              ; preds = %119
  %127 = load i32, i32* %15, align 4
  %128 = add nsw i32 %127, 1
  store i32 %128, i32* %15, align 4
  br label %141

129:                                              ; preds = %119
  %130 = load i32, i32* %15, align 4
  %131 = load i32, i32* %13, align 4
  %132 = icmp eq i32 %130, %131
  br i1 %132, label %133, label %140

133:                                              ; preds = %129
  %134 = load i32, i32* %9, align 4
  %135 = sext i32 %134 to i64
  %136 = getelementptr inbounds [1000 x i8], [1000 x i8]* %6, i64 0, i64 %135
  %137 = load i8, i8* %136, align 1
  %138 = sext i8 %137 to i32
  %139 = call i32 (i8*, ...) @printf(i8* getelementptr inbounds ([3 x i8], [3 x i8]* @.str, i64 0, i64 0), i32 %138)
  br label %140

140:                                              ; preds = %133, %129
  br label %141

141:                                              ; preds = %140, %126
  br label %142

142:                                              ; preds = %141
  %143 = load i32, i32* %9, align 4
  %144 = add nsw i32 %143, 1
  store i32 %144, i32* %9, align 4
  br label %114

145:                                              ; preds = %114
  %146 = call i32 (i8*, ...) @printf(i8* getelementptr inbounds ([2 x i8], [2 x i8]* @.str.1, i64 0, i64 0))
  br label %147

147:                                              ; preds = %145, %111
  %148 = load i32, i32* %14, align 4
  %149 = icmp eq i32 %148, 0
  br i1 %149, label %150, label %170

150:                                              ; preds = %147
  store i32 0, i32* %9, align 4
  br label %151

151:                                              ; preds = %165, %150
  %152 = load i32, i32* %9, align 4
  %153 = sext i32 %152 to i64
  %154 = getelementptr inbounds [1000 x i8], [1000 x i8]* %6, i64 0, i64 %153
  %155 = load i8, i8* %154, align 1
  %156 = sext i8 %155 to i32
  %157 = icmp ne i32 %156, 32
  br i1 %157, label %158, label %168

158:                                              ; preds = %151
  %159 = load i32, i32* %9, align 4
  %160 = sext i32 %159 to i64
  %161 = getelementptr inbounds [1000 x i8], [1000 x i8]* %6, i64 0, i64 %160
  %162 = load i8, i8* %161, align 1
  %163 = sext i8 %162 to i32
  %164 = call i32 (i8*, ...) @printf(i8* getelementptr inbounds ([3 x i8], [3 x i8]* @.str, i64 0, i64 0), i32 %163)
  br label %165

165:                                              ; preds = %158
  %166 = load i32, i32* %9, align 4
  %167 = add nsw i32 %166, 1
  store i32 %167, i32* %9, align 4
  br label %151

168:                                              ; preds = %151
  %169 = call i32 (i8*, ...) @printf(i8* getelementptr inbounds ([2 x i8], [2 x i8]* @.str.1, i64 0, i64 0))
  br label %210

170:                                              ; preds = %147
  store i32 0, i32* %16, align 4
  store i32 0, i32* %9, align 4
  br label %171

171:                                              ; preds = %206, %170
  %172 = load i32, i32* %9, align 4
  %173 = load i32, i32* %8, align 4
  %174 = sub nsw i32 %173, 1
  %175 = icmp sle i32 %172, %174
  br i1 %175, label %176, label %209

176:                                              ; preds = %171
  %177 = load i32, i32* %9, align 4
  %178 = sext i32 %177 to i64
  %179 = getelementptr inbounds [1000 x i8], [1000 x i8]* %6, i64 0, i64 %178
  %180 = load i8, i8* %179, align 1
  %181 = sext i8 %180 to i32
  %182 = icmp eq i32 %181, 32
  br i1 %182, label %183, label %186

183:                                              ; preds = %176
  %184 = load i32, i32* %16, align 4
  %185 = add nsw i32 %184, 1
  store i32 %185, i32* %16, align 4
  br label %198

186:                                              ; preds = %176
  %187 = load i32, i32* %16, align 4
  %188 = load i32, i32* %14, align 4
  %189 = icmp eq i32 %187, %188
  br i1 %189, label %190, label %197

190:                                              ; preds = %186
  %191 = load i32, i32* %9, align 4
  %192 = sext i32 %191 to i64
  %193 = getelementptr inbounds [1000 x i8], [1000 x i8]* %6, i64 0, i64 %192
  %194 = load i8, i8* %193, align 1
  %195 = sext i8 %194 to i32
  %196 = call i32 (i8*, ...) @printf(i8* getelementptr inbounds ([3 x i8], [3 x i8]* @.str, i64 0, i64 0), i32 %195)
  br label %197

197:                                              ; preds = %190, %186
  br label %198

198:                                              ; preds = %197, %183
  %199 = load i32, i32* %16, align 4
  %200 = load i32, i32* %14, align 4
  %201 = add nsw i32 %200, 1
  %202 = icmp eq i32 %199, %201
  br i1 %202, label %203, label %205

203:                                              ; preds = %198
  %204 = call i32 (i8*, ...) @printf(i8* getelementptr inbounds ([2 x i8], [2 x i8]* @.str.1, i64 0, i64 0))
  br label %209

205:                                              ; preds = %198
  br label %206

206:                                              ; preds = %205
  %207 = load i32, i32* %9, align 4
  %208 = add nsw i32 %207, 1
  store i32 %208, i32* %9, align 4
  br label %171

209:                                              ; preds = %203, %171
  br label %210

210:                                              ; preds = %209, %168
  ret i32 0
}

; Function Attrs: argmemonly nounwind willreturn
declare void @llvm.memset.p0i8.i64(i8* nocapture writeonly, i8, i64, i1 immarg) #1

declare dso_local i32 @gets(...) #2

; Function Attrs: nounwind readonly
declare dso_local i64 @strlen(i8*) #3

declare dso_local i32 @printf(i8*, ...) #2


!llvm.module.flags = !{!0}
!llvm.ident = !{!1}

!0 = !{i32 1, !"wchar_size", i32 4}
!1 = !{!"clang version 10.0.0-4ubuntu1 "}
